---
triple:          'arm64-apple-darwin'
binary-path:     '/Users/fangpli/Documents/chapter01/src/test'
relocations:
  - { offsetInCU: 0x3F, offset: 0x3F, size: 0x8, addend: 0x0, symName: _age, symObjAddr: 0x2F28, symBinAddr: 0x100008000, symSize: 0x0 }
  - { offsetInCU: 0x60, offset: 0x60, size: 0x8, addend: 0x0, symName: __ZN2aa1aE, symObjAddr: 0x2F2C, symBinAddr: 0x100008004, symSize: 0x0 }
  - { offsetInCU: 0x79, offset: 0x79, size: 0x8, addend: 0x0, symName: __ZN2aa1bE, symObjAddr: 0x2F30, symBinAddr: 0x100008008, symSize: 0x0 }
  - { offsetInCU: 0x2E35, offset: 0x2E35, size: 0x8, addend: 0x0, symName: __ZNSt3__124__put_character_sequenceB8ue170006IcNS_11char_traitsIcEEEERNS_13basic_ostreamIT_T0_EES7_PKS4_m, symObjAddr: 0x3A0, symBinAddr: 0x100001018, symSize: 0x1F4 }
  - { offsetInCU: 0x6500, offset: 0x6500, size: 0x8, addend: 0x0, symName: __ZNSt3__14endlB8ue170006IcNS_11char_traitsIcEEEERNS_13basic_ostreamIT_T0_EES7_, symObjAddr: 0x17C, symBinAddr: 0x100000DF4, symSize: 0x58 }
  - { offsetInCU: 0x6540, offset: 0x6540, size: 0x8, addend: 0x0, symName: __ZNSt3__1lsB8ue170006INS_11char_traitsIcEEEERNS_13basic_ostreamIcT_EES6_PKc, symObjAddr: 0x358, symBinAddr: 0x100000FD0, symSize: 0x48 }
  - { offsetInCU: 0x6586, offset: 0x6586, size: 0x8, addend: 0x0, symName: __ZNSt3__116__pad_and_outputB8ue170006IcNS_11char_traitsIcEEEENS_19ostreambuf_iteratorIT_T0_EES6_PKS4_S8_S8_RNS_8ios_baseES4_, symObjAddr: 0x5F8, symBinAddr: 0x100001270, symSize: 0x248 }
  - { offsetInCU: 0x6655, offset: 0x6655, size: 0x8, addend: 0x0, symName: __ZNSt3__112__to_addressB8ue170006IKcEEPT_S3_, symObjAddr: 0xB68, symBinAddr: 0x1000017E0, symSize: 0x14 }
  - { offsetInCU: 0x668A, offset: 0x668A, size: 0x8, addend: 0x0, symName: __ZNSt3__130__libcpp_is_constant_evaluatedB8ue170006Ev, symObjAddr: 0xC94, symBinAddr: 0x10000190C, symSize: 0xC }
  - { offsetInCU: 0x66DA, offset: 0x66DA, size: 0x8, addend: 0x0, symName: __ZNSt3__19use_facetB8ue170006INS_5ctypeIcEEEERKT_RKNS_6localeE, symObjAddr: 0xE4C, symBinAddr: 0x100001AC4, symSize: 0x2C }
  - { offsetInCU: 0x6BA7, offset: 0x6BA7, size: 0x8, addend: 0x0, symName: __ZNSt3__118__constexpr_strlenB8ue170006EPKc, symObjAddr: 0xEE4, symBinAddr: 0x100001B5C, symSize: 0x24 }
  - { offsetInCU: 0x6BD3, offset: 0x6BD3, size: 0x8, addend: 0x0, symName: __ZNSt3__112__to_addressB8ue170006I6personEEPT_S3_, symObjAddr: 0x1400, symBinAddr: 0x100002078, symSize: 0x14 }
  - { offsetInCU: 0x6C08, offset: 0x6C08, size: 0x8, addend: 0x0, symName: __ZNSt3__119__libcpp_deallocateB8ue170006EPvmm, symObjAddr: 0x151C, symBinAddr: 0x100002194, symSize: 0x30 }
  - { offsetInCU: 0x6C50, offset: 0x6C50, size: 0x8, addend: 0x0, symName: __ZNSt3__127__do_deallocate_handle_sizeB8ue170006IJEEEvPvmDpT_, symObjAddr: 0x154C, symBinAddr: 0x1000021C4, symSize: 0x28 }
  - { offsetInCU: 0x6C8E, offset: 0x6C8E, size: 0x8, addend: 0x0, symName: __ZNSt3__124__libcpp_operator_deleteB8ue170006IJPvEEEvDpT_, symObjAddr: 0x1574, symBinAddr: 0x1000021EC, symSize: 0x24 }
  - { offsetInCU: 0x6CC3, offset: 0x6CC3, size: 0x8, addend: 0x0, symName: __ZNSt3__13maxB8ue170006ImEERKT_S3_S3_, symObjAddr: 0x1C88, symBinAddr: 0x100002900, symSize: 0x2C }
  - { offsetInCU: 0x6D06, offset: 0x6D06, size: 0x8, addend: 0x0, symName: __ZNSt3__13minB8ue170006ImEERKT_S3_S3_, symObjAddr: 0x1CB4, symBinAddr: 0x10000292C, symSize: 0x2C }
  - { offsetInCU: 0x6F4A, offset: 0x6F4A, size: 0x8, addend: 0x0, symName: __ZNSt3__13minB8ue170006ImNS_6__lessIvvEEEERKT_S5_S5_T0_, symObjAddr: 0x1D40, symBinAddr: 0x1000029B8, symSize: 0x54 }
  - { offsetInCU: 0x6FE9, offset: 0x6FE9, size: 0x8, addend: 0x0, symName: __ZNSt3__120__throw_length_errorB8ue170006EPKc, symObjAddr: 0x1E1C, symBinAddr: 0x100002A94, symSize: 0x64 }
  - { offsetInCU: 0x7013, offset: 0x7013, size: 0x8, addend: 0x0, symName: __ZNSt3__13maxB8ue170006ImNS_6__lessIvvEEEERKT_S5_S5_T0_, symObjAddr: 0x1F00, symBinAddr: 0x100002B78, symSize: 0x54 }
  - { offsetInCU: 0x706D, offset: 0x706D, size: 0x8, addend: 0x0, symName: __ZNSt3__119__allocate_at_leastB8ue170006INS_9allocatorI6personEEEENS_19__allocation_resultINS_16allocator_traitsIT_E7pointerEEERS6_m, symObjAddr: 0x2064, symBinAddr: 0x100002CDC, symSize: 0x40 }
  - { offsetInCU: 0x70B0, offset: 0x70B0, size: 0x8, addend: 0x0, symName: __ZNSt3__117__libcpp_allocateB8ue170006Emm, symObjAddr: 0x2214, symBinAddr: 0x100002E8C, symSize: 0x28 }
  - { offsetInCU: 0x70ED, offset: 0x70ED, size: 0x8, addend: 0x0, symName: __ZNSt3__121__libcpp_operator_newB8ue170006IJmEEEPvDpT_, symObjAddr: 0x223C, symBinAddr: 0x100002EB4, symSize: 0x24 }
  - { offsetInCU: 0x7126, offset: 0x7126, size: 0x8, addend: 0x0, symName: __ZNSt3__142__uninitialized_allocator_move_if_noexceptB8ue170006INS_9allocatorI6personEENS_16reverse_iteratorIPS2_EES6_S6_EET2_RT_T0_T1_S7_, symObjAddr: 0x22C4, symBinAddr: 0x100002F3C, symSize: 0x134 }
  - { offsetInCU: 0x71C6, offset: 0x71C6, size: 0x8, addend: 0x0, symName: __ZNSt3__14swapB8ue170006IP6personEEvRT_S4_, symObjAddr: 0x2444, symBinAddr: 0x1000030BC, symSize: 0x3C }
  - { offsetInCU: 0x7217, offset: 0x7217, size: 0x8, addend: 0x0, symName: __ZNSt3__122__make_exception_guardB8ue170006INS_29_AllocatorDestroyRangeReverseINS_9allocatorI6personEENS_16reverse_iteratorIPS3_EEEEEENS_28__exception_guard_exceptionsIT_EESA_, symObjAddr: 0x252C, symBinAddr: 0x1000031A4, symSize: 0x4C }
  - { offsetInCU: 0x724D, offset: 0x724D, size: 0x8, addend: 0x0, symName: __ZNSt3__1neB8ue170006IP6personS2_EEbRKNS_16reverse_iteratorIT_EERKNS3_IT0_EE, symObjAddr: 0x25BC, symBinAddr: 0x100003234, symSize: 0x48 }
  - { offsetInCU: 0x7299, offset: 0x7299, size: 0x8, addend: 0x0, symName: __ZNSt3__112__to_addressB8ue170006INS_16reverse_iteratorIP6personEEvEEu7__decayIDTclsr19__to_address_helperIT_EE6__callclsr3stdE7declvalIRKS5_EEEEES7_, symObjAddr: 0x2604, symBinAddr: 0x10000327C, symSize: 0x24 }
  - { offsetInCU: 0x72F8, offset: 0x72F8, size: 0x8, addend: 0x0, symName: __ZNSt3__119__allocator_destroyB8ue170006INS_9allocatorI6personEENS_16reverse_iteratorINS4_IPS2_EEEES7_EEvRT_T0_T1_, symObjAddr: 0x28C0, symBinAddr: 0x100003538, symSize: 0x70 }
  - { offsetInCU: 0x735D, offset: 0x735D, size: 0x8, addend: 0x0, symName: __ZNSt3__1neB8ue170006INS_16reverse_iteratorIP6personEES4_EEbRKNS1_IT_EERKNS1_IT0_EE, symObjAddr: 0x296C, symBinAddr: 0x1000035E4, symSize: 0x60 }
  - { offsetInCU: 0x73A9, offset: 0x73A9, size: 0x8, addend: 0x0, symName: __ZNSt3__112__to_addressB8ue170006INS_16reverse_iteratorINS1_IP6personEEEEvEEu7__decayIDTclsr19__to_address_helperIT_EE6__callclsr3stdE7declvalIRKS6_EEEEES8_, symObjAddr: 0x29CC, symBinAddr: 0x100003644, symSize: 0x24 }
  - { offsetInCU: 0x75B5, offset: 0x75B5, size: 0x8, addend: 0x0, symName: __ZSt28__throw_bad_array_new_lengthB8ue170006v, symObjAddr: 0x21E0, symBinAddr: 0x100002E58, symSize: 0x34 }
  - { offsetInCU: 0x7B90, offset: 0x7B90, size: 0x8, addend: 0x0, symName: __ZNSt3__16vectorI6personNS_9allocatorIS1_EEE26__swap_out_circular_bufferERNS_14__split_bufferIS1_RS3_EE, symObjAddr: 0x1ABC, symBinAddr: 0x100002734, symSize: 0x110 }
  - { offsetInCU: 0x9EC2, offset: 0x9EC2, size: 0x8, addend: 0x0, symName: _main, symObjAddr: 0x0, symBinAddr: 0x100000C78, symSize: 0x150 }
  - { offsetInCU: 0x9F23, offset: 0x9F23, size: 0x8, addend: 0x0, symName: __ZNSt3__113basic_ostreamIcNS_11char_traitsIcEEElsB8ue170006EPFRS3_S4_E, symObjAddr: 0x150, symBinAddr: 0x100000DC8, symSize: 0x2C }
  - { offsetInCU: 0x9F56, offset: 0x9F56, size: 0x8, addend: 0x0, symName: __ZN6personC1Ei, symObjAddr: 0x1D4, symBinAddr: 0x100000E4C, symSize: 0x34 }
  - { offsetInCU: 0x9F8D, offset: 0x9F8D, size: 0x8, addend: 0x0, symName: __ZNSt3__16vectorI6personNS_9allocatorIS1_EEEC1B8ue170006Ev, symObjAddr: 0x208, symBinAddr: 0x100000E80, symSize: 0x2C }
  - { offsetInCU: 0x9FB5, offset: 0x9FB5, size: 0x8, addend: 0x0, symName: __ZNSt3__16vectorI6personNS_9allocatorIS1_EEE9push_backB8ue170006ERKS1_, symObjAddr: 0x234, symBinAddr: 0x100000EAC, symSize: 0x6C }
  - { offsetInCU: 0x9FEB, offset: 0x9FEB, size: 0x8, addend: 0x0, symName: __ZNSt3__16vectorI6personNS_9allocatorIS1_EEED1B8ue170006Ev, symObjAddr: 0x2A0, symBinAddr: 0x100000F18, symSize: 0x2C }
  - { offsetInCU: 0xA014, offset: 0xA014, size: 0x8, addend: 0x0, symName: __ZN6personD1Ev, symObjAddr: 0x2D8, symBinAddr: 0x100000F50, symSize: 0x2C }
  - { offsetInCU: 0xA03D, offset: 0xA03D, size: 0x8, addend: 0x0, symName: __ZN6personC2Ei, symObjAddr: 0x304, symBinAddr: 0x100000F7C, symSize: 0x54 }
  - { offsetInCU: 0xA074, offset: 0xA074, size: 0x8, addend: 0x0, symName: __ZNSt3__111char_traitsIcE6lengthB8ue170006EPKc, symObjAddr: 0x594, symBinAddr: 0x10000120C, symSize: 0x48 }
  - { offsetInCU: 0xA0B5, offset: 0xA0B5, size: 0x8, addend: 0x0, symName: __ZNKSt3__113basic_ostreamIcNS_11char_traitsIcEEE6sentrycvbB8ue170006Ev, symObjAddr: 0x5DC, symBinAddr: 0x100001254, symSize: 0x1C }
  - { offsetInCU: 0xA0DA, offset: 0xA0DA, size: 0x8, addend: 0x0, symName: __ZNSt3__119ostreambuf_iteratorIcNS_11char_traitsIcEEEC1B8ue170006ERNS_13basic_ostreamIcS2_EE, symObjAddr: 0x840, symBinAddr: 0x1000014B8, symSize: 0x34 }
  - { offsetInCU: 0xA111, offset: 0xA111, size: 0x8, addend: 0x0, symName: __ZNKSt3__18ios_base5flagsB8ue170006Ev, symObjAddr: 0x874, symBinAddr: 0x1000014EC, symSize: 0x18 }
  - { offsetInCU: 0xA137, offset: 0xA137, size: 0x8, addend: 0x0, symName: __ZNKSt3__19basic_iosIcNS_11char_traitsIcEEE4fillB8ue170006Ev, symObjAddr: 0x88C, symBinAddr: 0x100001504, symSize: 0x64 }
  - { offsetInCU: 0xA15E, offset: 0xA15E, size: 0x8, addend: 0x0, symName: __ZNKSt3__119ostreambuf_iteratorIcNS_11char_traitsIcEEE6failedB8ue170006Ev, symObjAddr: 0x8F0, symBinAddr: 0x100001568, symSize: 0x24 }
  - { offsetInCU: 0xA183, offset: 0xA183, size: 0x8, addend: 0x0, symName: __ZNSt3__19basic_iosIcNS_11char_traitsIcEEE8setstateB8ue170006Ej, symObjAddr: 0x914, symBinAddr: 0x10000158C, symSize: 0x2C }
  - { offsetInCU: 0xA1B7, offset: 0xA1B7, size: 0x8, addend: 0x0, symName: __ZNKSt3__18ios_base5widthB8ue170006Ev, symObjAddr: 0x940, symBinAddr: 0x1000015B8, symSize: 0x18 }
  - { offsetInCU: 0xA1DE, offset: 0xA1DE, size: 0x8, addend: 0x0, symName: __ZNSt3__115basic_streambufIcNS_11char_traitsIcEEE5sputnB8ue170006EPKcl, symObjAddr: 0x958, symBinAddr: 0x1000015D0, symSize: 0x3C }
  - { offsetInCU: 0xA21F, offset: 0xA21F, size: 0x8, addend: 0x0, symName: __ZNSt3__112basic_stringIcNS_11char_traitsIcEENS_9allocatorIcEEEC1B8ue170006Emc, symObjAddr: 0x994, symBinAddr: 0x10000160C, symSize: 0x3C }
  - { offsetInCU: 0xA266, offset: 0xA266, size: 0x8, addend: 0x0, symName: __ZNKSt3__112basic_stringIcNS_11char_traitsIcEENS_9allocatorIcEEE4dataB8ue170006Ev, symObjAddr: 0x9D0, symBinAddr: 0x100001648, symSize: 0x28 }
  - { offsetInCU: 0xA28B, offset: 0xA28B, size: 0x8, addend: 0x0, symName: __ZNSt3__18ios_base5widthB8ue170006El, symObjAddr: 0x9F8, symBinAddr: 0x100001670, symSize: 0x2C }
  - { offsetInCU: 0xA2D0, offset: 0xA2D0, size: 0x8, addend: 0x0, symName: __ZNSt3__112basic_stringIcNS_11char_traitsIcEENS_9allocatorIcEEEC2B8ue170006Emc, symObjAddr: 0xA24, symBinAddr: 0x10000169C, symSize: 0x4C }
  - { offsetInCU: 0xA31C, offset: 0xA31C, size: 0x8, addend: 0x0, symName: __ZNSt3__117__compressed_pairINS_12basic_stringIcNS_11char_traitsIcEENS_9allocatorIcEEE5__repES5_EC1B8ue170006INS_18__default_init_tagESA_EEOT_OT0_, symObjAddr: 0xA70, symBinAddr: 0x1000016E8, symSize: 0x3C }
  - { offsetInCU: 0xA373, offset: 0xA373, size: 0x8, addend: 0x0, symName: __ZNSt3__117__compressed_pairINS_12basic_stringIcNS_11char_traitsIcEENS_9allocatorIcEEE5__repES5_EC2B8ue170006INS_18__default_init_tagESA_EEOT_OT0_, symObjAddr: 0xAAC, symBinAddr: 0x100001724, symSize: 0x3C }
  - { offsetInCU: 0xA3CA, offset: 0xA3CA, size: 0x8, addend: 0x0, symName: __ZNSt3__122__compressed_pair_elemINS_12basic_stringIcNS_11char_traitsIcEENS_9allocatorIcEEE5__repELi0ELb0EEC2B8ue170006ENS_18__default_init_tagE, symObjAddr: 0xAE8, symBinAddr: 0x100001760, symSize: 0x14 }
  - { offsetInCU: 0xA3FE, offset: 0xA3FE, size: 0x8, addend: 0x0, symName: __ZNSt3__122__compressed_pair_elemINS_9allocatorIcEELi1ELb1EEC2B8ue170006ENS_18__default_init_tagE, symObjAddr: 0xAFC, symBinAddr: 0x100001774, symSize: 0x2C }
  - { offsetInCU: 0xA432, offset: 0xA432, size: 0x8, addend: 0x0, symName: __ZNSt3__19allocatorIcEC2B8ue170006Ev, symObjAddr: 0xB28, symBinAddr: 0x1000017A0, symSize: 0x2C }
  - { offsetInCU: 0xA45B, offset: 0xA45B, size: 0x8, addend: 0x0, symName: __ZNSt3__116__non_trivial_ifILb1ENS_9allocatorIcEEEC2B8ue170006Ev, symObjAddr: 0xB54, symBinAddr: 0x1000017CC, symSize: 0x14 }
  - { offsetInCU: 0xA484, offset: 0xA484, size: 0x8, addend: 0x0, symName: __ZNKSt3__112basic_stringIcNS_11char_traitsIcEENS_9allocatorIcEEE13__get_pointerB8ue170006Ev, symObjAddr: 0xB7C, symBinAddr: 0x1000017F4, symSize: 0x54 }
  - { offsetInCU: 0xA4A9, offset: 0xA4A9, size: 0x8, addend: 0x0, symName: __ZNKSt3__112basic_stringIcNS_11char_traitsIcEENS_9allocatorIcEEE9__is_longB8ue170006Ev, symObjAddr: 0xBD0, symBinAddr: 0x100001848, symSize: 0x74 }
  - { offsetInCU: 0xA4CE, offset: 0xA4CE, size: 0x8, addend: 0x0, symName: __ZNKSt3__112basic_stringIcNS_11char_traitsIcEENS_9allocatorIcEEE18__get_long_pointerB8ue170006Ev, symObjAddr: 0xC44, symBinAddr: 0x1000018BC, symSize: 0x28 }
  - { offsetInCU: 0xA4F3, offset: 0xA4F3, size: 0x8, addend: 0x0, symName: __ZNKSt3__112basic_stringIcNS_11char_traitsIcEENS_9allocatorIcEEE19__get_short_pointerB8ue170006Ev, symObjAddr: 0xC6C, symBinAddr: 0x1000018E4, symSize: 0x28 }
  - { offsetInCU: 0xA518, offset: 0xA518, size: 0x8, addend: 0x0, symName: __ZNKSt3__117__compressed_pairINS_12basic_stringIcNS_11char_traitsIcEENS_9allocatorIcEEE5__repES5_E5firstB8ue170006Ev, symObjAddr: 0xCA0, symBinAddr: 0x100001918, symSize: 0x24 }
  - { offsetInCU: 0xA53D, offset: 0xA53D, size: 0x8, addend: 0x0, symName: __ZNKSt3__122__compressed_pair_elemINS_12basic_stringIcNS_11char_traitsIcEENS_9allocatorIcEEE5__repELi0ELb0EE5__getB8ue170006Ev, symObjAddr: 0xCC4, symBinAddr: 0x10000193C, symSize: 0x14 }
  - { offsetInCU: 0xA562, offset: 0xA562, size: 0x8, addend: 0x0, symName: __ZNSt3__114pointer_traitsIPKcE10pointer_toB8ue170006ERS1_, symObjAddr: 0xCD8, symBinAddr: 0x100001950, symSize: 0x14 }
  - { offsetInCU: 0xA585, offset: 0xA585, size: 0x8, addend: 0x0, symName: __ZNSt3__119ostreambuf_iteratorIcNS_11char_traitsIcEEEC2B8ue170006ERNS_13basic_ostreamIcS2_EE, symObjAddr: 0xCEC, symBinAddr: 0x100001964, symSize: 0x68 }
  - { offsetInCU: 0xA5BB, offset: 0xA5BB, size: 0x8, addend: 0x0, symName: __ZNKSt3__19basic_iosIcNS_11char_traitsIcEEE5rdbufB8ue170006Ev, symObjAddr: 0xD54, symBinAddr: 0x1000019CC, symSize: 0x24 }
  - { offsetInCU: 0xA5E2, offset: 0xA5E2, size: 0x8, addend: 0x0, symName: __ZNKSt3__18ios_base5rdbufB8ue170006Ev, symObjAddr: 0xD78, symBinAddr: 0x1000019F0, symSize: 0x18 }
  - { offsetInCU: 0xA607, offset: 0xA607, size: 0x8, addend: 0x0, symName: __ZNSt3__111char_traitsIcE11eq_int_typeB8ue170006Eii, symObjAddr: 0xD90, symBinAddr: 0x100001A08, symSize: 0x28 }
  - { offsetInCU: 0xA63A, offset: 0xA63A, size: 0x8, addend: 0x0, symName: __ZNSt3__111char_traitsIcE3eofB8ue170006Ev, symObjAddr: 0xDB8, symBinAddr: 0x100001A30, symSize: 0x8 }
  - { offsetInCU: 0xA64D, offset: 0xA64D, size: 0x8, addend: 0x0, symName: __ZNKSt3__19basic_iosIcNS_11char_traitsIcEEE5widenB8ue170006Ec, symObjAddr: 0xDC0, symBinAddr: 0x100001A38, symSize: 0x8C }
  - { offsetInCU: 0xA6BA, offset: 0xA6BA, size: 0x8, addend: 0x0, symName: __ZNKSt3__15ctypeIcE5widenB8ue170006Ec, symObjAddr: 0xE78, symBinAddr: 0x100001AF0, symSize: 0x38 }
  - { offsetInCU: 0xA6ED, offset: 0xA6ED, size: 0x8, addend: 0x0, symName: __ZNSt3__18ios_base8setstateB8ue170006Ej, symObjAddr: 0xEB0, symBinAddr: 0x100001B28, symSize: 0x34 }
  - { offsetInCU: 0xA723, offset: 0xA723, size: 0x8, addend: 0x0, symName: __ZN6personD2Ev, symObjAddr: 0xF08, symBinAddr: 0x100001B80, symSize: 0x48 }
  - { offsetInCU: 0xA74C, offset: 0xA74C, size: 0x8, addend: 0x0, symName: __ZNSt3__16vectorI6personNS_9allocatorIS1_EEEC2B8ue170006Ev, symObjAddr: 0xF50, symBinAddr: 0x100001BC8, symSize: 0x44 }
  - { offsetInCU: 0xA77A, offset: 0xA77A, size: 0x8, addend: 0x0, symName: __ZNSt3__117__compressed_pairIP6personNS_9allocatorIS1_EEEC1B8ue170006IDnNS_18__default_init_tagEEEOT_OT0_, symObjAddr: 0xF94, symBinAddr: 0x100001C0C, symSize: 0x3C }
  - { offsetInCU: 0xA7D1, offset: 0xA7D1, size: 0x8, addend: 0x0, symName: __ZNSt3__117__compressed_pairIP6personNS_9allocatorIS1_EEEC2B8ue170006IDnNS_18__default_init_tagEEEOT_OT0_, symObjAddr: 0xFD0, symBinAddr: 0x100001C48, symSize: 0x40 }
  - { offsetInCU: 0xA828, offset: 0xA828, size: 0x8, addend: 0x0, symName: __ZNSt3__122__compressed_pair_elemIP6personLi0ELb0EEC2B8ue170006IDnvEEOT_, symObjAddr: 0x1010, symBinAddr: 0x100001C88, symSize: 0x1C }
  - { offsetInCU: 0xA869, offset: 0xA869, size: 0x8, addend: 0x0, symName: __ZNSt3__122__compressed_pair_elemINS_9allocatorI6personEELi1ELb1EEC2B8ue170006ENS_18__default_init_tagE, symObjAddr: 0x102C, symBinAddr: 0x100001CA4, symSize: 0x2C }
  - { offsetInCU: 0xA89D, offset: 0xA89D, size: 0x8, addend: 0x0, symName: __ZNSt3__19allocatorI6personEC2B8ue170006Ev, symObjAddr: 0x1058, symBinAddr: 0x100001CD0, symSize: 0x2C }
  - { offsetInCU: 0xA8C6, offset: 0xA8C6, size: 0x8, addend: 0x0, symName: __ZNSt3__116__non_trivial_ifILb1ENS_9allocatorI6personEEEC2B8ue170006Ev, symObjAddr: 0x1084, symBinAddr: 0x100001CFC, symSize: 0x14 }
  - { offsetInCU: 0xA8EF, offset: 0xA8EF, size: 0x8, addend: 0x0, symName: __ZNSt3__16vectorI6personNS_9allocatorIS1_EEED2B8ue170006Ev, symObjAddr: 0x1098, symBinAddr: 0x100001D10, symSize: 0x3C }
  - { offsetInCU: 0xA918, offset: 0xA918, size: 0x8, addend: 0x0, symName: __ZNSt3__16vectorI6personNS_9allocatorIS1_EEE16__destroy_vectorC1B8ue170006ERS4_, symObjAddr: 0x10D4, symBinAddr: 0x100001D4C, symSize: 0x34 }
  - { offsetInCU: 0xA950, offset: 0xA950, size: 0x8, addend: 0x0, symName: __ZNSt3__16vectorI6personNS_9allocatorIS1_EEE16__destroy_vectorclB8ue170006Ev, symObjAddr: 0x1108, symBinAddr: 0x100001D80, symSize: 0x90 }
  - { offsetInCU: 0xA975, offset: 0xA975, size: 0x8, addend: 0x0, symName: __ZNSt3__16vectorI6personNS_9allocatorIS1_EEE16__destroy_vectorC2B8ue170006ERS4_, symObjAddr: 0x1198, symBinAddr: 0x100001E10, symSize: 0x20 }
  - { offsetInCU: 0xA9AD, offset: 0xA9AD, size: 0x8, addend: 0x0, symName: __ZNSt3__16vectorI6personNS_9allocatorIS1_EEE7__clearB8ue170006Ev, symObjAddr: 0x11B8, symBinAddr: 0x100001E30, symSize: 0x28 }
  - { offsetInCU: 0xA9D2, offset: 0xA9D2, size: 0x8, addend: 0x0, symName: __ZNKSt3__16vectorI6personNS_9allocatorIS1_EEE17__annotate_deleteB8ue170006Ev, symObjAddr: 0x11E0, symBinAddr: 0x100001E58, symSize: 0xB8 }
  - { offsetInCU: 0xA9F7, offset: 0xA9F7, size: 0x8, addend: 0x0, symName: __ZNSt3__116allocator_traitsINS_9allocatorI6personEEE10deallocateB8ue170006ERS3_PS2_m, symObjAddr: 0x1298, symBinAddr: 0x100001F10, symSize: 0x34 }
  - { offsetInCU: 0xAA39, offset: 0xAA39, size: 0x8, addend: 0x0, symName: __ZNSt3__16vectorI6personNS_9allocatorIS1_EEE7__allocB8ue170006Ev, symObjAddr: 0x12CC, symBinAddr: 0x100001F44, symSize: 0x28 }
  - { offsetInCU: 0xAA5E, offset: 0xAA5E, size: 0x8, addend: 0x0, symName: __ZNKSt3__16vectorI6personNS_9allocatorIS1_EEE8capacityB8ue170006Ev, symObjAddr: 0x12F4, symBinAddr: 0x100001F6C, symSize: 0x40 }
  - { offsetInCU: 0xAA83, offset: 0xAA83, size: 0x8, addend: 0x0, symName: __ZNSt3__16vectorI6personNS_9allocatorIS1_EEE22__base_destruct_at_endB8ue170006EPS1_, symObjAddr: 0x1334, symBinAddr: 0x100001FAC, symSize: 0xA0 }
  - { offsetInCU: 0xAAC6, offset: 0xAAC6, size: 0x8, addend: 0x0, symName: __ZNSt3__116allocator_traitsINS_9allocatorI6personEEE7destroyB8ue170006IS2_vEEvRS3_PT_, symObjAddr: 0x13D4, symBinAddr: 0x10000204C, symSize: 0x2C }
  - { offsetInCU: 0xAB03, offset: 0xAB03, size: 0x8, addend: 0x0, symName: __ZNSt3__19allocatorI6personE7destroyB8ue170006EPS1_, symObjAddr: 0x1414, symBinAddr: 0x10000208C, symSize: 0x28 }
  - { offsetInCU: 0xAB36, offset: 0xAB36, size: 0x8, addend: 0x0, symName: __ZNKSt3__16vectorI6personNS_9allocatorIS1_EEE31__annotate_contiguous_containerB8ue170006EPKvS6_S6_S6_, symObjAddr: 0x143C, symBinAddr: 0x1000020B4, symSize: 0x20 }
  - { offsetInCU: 0xAB8B, offset: 0xAB8B, size: 0x8, addend: 0x0, symName: __ZNKSt3__16vectorI6personNS_9allocatorIS1_EEE4dataB8ue170006Ev, symObjAddr: 0x145C, symBinAddr: 0x1000020D4, symSize: 0x28 }
  - { offsetInCU: 0xABB0, offset: 0xABB0, size: 0x8, addend: 0x0, symName: __ZNKSt3__16vectorI6personNS_9allocatorIS1_EEE4sizeB8ue170006Ev, symObjAddr: 0x1484, symBinAddr: 0x1000020FC, symSize: 0x28 }
  - { offsetInCU: 0xABD5, offset: 0xABD5, size: 0x8, addend: 0x0, symName: __ZNSt3__19allocatorI6personE10deallocateB8ue170006EPS1_m, symObjAddr: 0x14AC, symBinAddr: 0x100002124, symSize: 0x70 }
  - { offsetInCU: 0xAC16, offset: 0xAC16, size: 0x8, addend: 0x0, symName: __ZNSt3__117__compressed_pairIP6personNS_9allocatorIS1_EEE6secondB8ue170006Ev, symObjAddr: 0x1598, symBinAddr: 0x100002210, symSize: 0x24 }
  - { offsetInCU: 0xAC3B, offset: 0xAC3B, size: 0x8, addend: 0x0, symName: __ZNSt3__122__compressed_pair_elemINS_9allocatorI6personEELi1ELb1EE5__getB8ue170006Ev, symObjAddr: 0x15BC, symBinAddr: 0x100002234, symSize: 0x14 }
  - { offsetInCU: 0xAC60, offset: 0xAC60, size: 0x8, addend: 0x0, symName: __ZNKSt3__16vectorI6personNS_9allocatorIS1_EEE9__end_capB8ue170006Ev, symObjAddr: 0x15D0, symBinAddr: 0x100002248, symSize: 0x28 }
  - { offsetInCU: 0xAC85, offset: 0xAC85, size: 0x8, addend: 0x0, symName: __ZNKSt3__117__compressed_pairIP6personNS_9allocatorIS1_EEE5firstB8ue170006Ev, symObjAddr: 0x15F8, symBinAddr: 0x100002270, symSize: 0x24 }
  - { offsetInCU: 0xACAA, offset: 0xACAA, size: 0x8, addend: 0x0, symName: __ZNKSt3__122__compressed_pair_elemIP6personLi0ELb0EE5__getB8ue170006Ev, symObjAddr: 0x161C, symBinAddr: 0x100002294, symSize: 0x14 }
  - { offsetInCU: 0xACCF, offset: 0xACCF, size: 0x8, addend: 0x0, symName: __ZNSt3__16vectorI6personNS_9allocatorIS1_EEE9__end_capB8ue170006Ev, symObjAddr: 0x1630, symBinAddr: 0x1000022A8, symSize: 0x28 }
  - { offsetInCU: 0xACF4, offset: 0xACF4, size: 0x8, addend: 0x0, symName: __ZNSt3__16vectorI6personNS_9allocatorIS1_EEE22__construct_one_at_endB8ue170006IJRKS1_EEEvDpOT_, symObjAddr: 0x1658, symBinAddr: 0x1000022D0, symSize: 0x98 }
  - { offsetInCU: 0xAD41, offset: 0xAD41, size: 0x8, addend: 0x0, symName: __ZNSt3__16vectorI6personNS_9allocatorIS1_EEE21__push_back_slow_pathIRKS1_EEvOT_, symObjAddr: 0x16F0, symBinAddr: 0x100002368, symSize: 0xE0 }
  - { offsetInCU: 0xAD9E, offset: 0xAD9E, size: 0x8, addend: 0x0, symName: __ZNSt3__117__compressed_pairIP6personNS_9allocatorIS1_EEE5firstB8ue170006Ev, symObjAddr: 0x17D0, symBinAddr: 0x100002448, symSize: 0x24 }
  - { offsetInCU: 0xADC3, offset: 0xADC3, size: 0x8, addend: 0x0, symName: __ZNSt3__122__compressed_pair_elemIP6personLi0ELb0EE5__getB8ue170006Ev, symObjAddr: 0x17F4, symBinAddr: 0x10000246C, symSize: 0x14 }
  - { offsetInCU: 0xAE01, offset: 0xAE01, size: 0x8, addend: 0x0, symName: __ZNSt3__16vectorI6personNS_9allocatorIS1_EEE21_ConstructTransactionC1B8ue170006ERS4_m, symObjAddr: 0x1808, symBinAddr: 0x100002480, symSize: 0x3C }
  - { offsetInCU: 0xAE48, offset: 0xAE48, size: 0x8, addend: 0x0, symName: __ZNSt3__116allocator_traitsINS_9allocatorI6personEEE9constructB8ue170006IS2_JRKS2_EvEEvRS3_PT_DpOT0_, symObjAddr: 0x1844, symBinAddr: 0x1000024BC, symSize: 0x34 }
  - { offsetInCU: 0xAE9F, offset: 0xAE9F, size: 0x8, addend: 0x0, symName: __ZNSt3__16vectorI6personNS_9allocatorIS1_EEE21_ConstructTransactionD1B8ue170006Ev, symObjAddr: 0x1878, symBinAddr: 0x1000024F0, symSize: 0x2C }
  - { offsetInCU: 0xAEC8, offset: 0xAEC8, size: 0x8, addend: 0x0, symName: __ZNSt3__16vectorI6personNS_9allocatorIS1_EEE21_ConstructTransactionC2B8ue170006ERS4_m, symObjAddr: 0x18A4, symBinAddr: 0x10000251C, symSize: 0x44 }
  - { offsetInCU: 0xAF0F, offset: 0xAF0F, size: 0x8, addend: 0x0, symName: __ZNSt3__19allocatorI6personE9constructB8ue170006IS1_JRKS1_EEEvPT_DpOT0_, symObjAddr: 0x18E8, symBinAddr: 0x100002560, symSize: 0x30 }
  - { offsetInCU: 0xAF64, offset: 0xAF64, size: 0x8, addend: 0x0, symName: __ZN6personC1ERKS_, symObjAddr: 0x1918, symBinAddr: 0x100002590, symSize: 0x34 }
  - { offsetInCU: 0xAF9B, offset: 0xAF9B, size: 0x8, addend: 0x0, symName: __ZN6personC2ERKS_, symObjAddr: 0x194C, symBinAddr: 0x1000025C4, symSize: 0x58 }
  - { offsetInCU: 0xAFD2, offset: 0xAFD2, size: 0x8, addend: 0x0, symName: __ZNSt3__16vectorI6personNS_9allocatorIS1_EEE21_ConstructTransactionD2B8ue170006Ev, symObjAddr: 0x19A4, symBinAddr: 0x10000261C, symSize: 0x20 }
  - { offsetInCU: 0xAFFA, offset: 0xAFFA, size: 0x8, addend: 0x0, symName: __ZNKSt3__16vectorI6personNS_9allocatorIS1_EEE11__recommendB8ue170006Em, symObjAddr: 0x19C4, symBinAddr: 0x10000263C, symSize: 0xB4 }
  - { offsetInCU: 0xB04E, offset: 0xB04E, size: 0x8, addend: 0x0, symName: __ZNSt3__114__split_bufferI6personRNS_9allocatorIS1_EEEC1EmmS4_, symObjAddr: 0x1A78, symBinAddr: 0x1000026F0, symSize: 0x44 }
  - { offsetInCU: 0xB0A3, offset: 0xB0A3, size: 0x8, addend: 0x0, symName: __ZNSt3__114__split_bufferI6personRNS_9allocatorIS1_EEED1Ev, symObjAddr: 0x1BCC, symBinAddr: 0x100002844, symSize: 0x2C }
  - { offsetInCU: 0xB0CD, offset: 0xB0CD, size: 0x8, addend: 0x0, symName: __ZNKSt3__16vectorI6personNS_9allocatorIS1_EEE8max_sizeEv, symObjAddr: 0x1BF8, symBinAddr: 0x100002870, symSize: 0x74 }
  - { offsetInCU: 0xB0F4, offset: 0xB0F4, size: 0x8, addend: 0x0, symName: __ZNKSt3__16vectorI6personNS_9allocatorIS1_EEE20__throw_length_errorB8ue170006Ev, symObjAddr: 0x1C6C, symBinAddr: 0x1000028E4, symSize: 0x1C }
  - { offsetInCU: 0xB123, offset: 0xB123, size: 0x8, addend: 0x0, symName: __ZNSt3__116allocator_traitsINS_9allocatorI6personEEE8max_sizeB8ue170006IS3_vEEmRKS3_, symObjAddr: 0x1CE0, symBinAddr: 0x100002958, symSize: 0x24 }
  - { offsetInCU: 0xB151, offset: 0xB151, size: 0x8, addend: 0x0, symName: __ZNKSt3__16vectorI6personNS_9allocatorIS1_EEE7__allocB8ue170006Ev, symObjAddr: 0x1D04, symBinAddr: 0x10000297C, symSize: 0x28 }
  - { offsetInCU: 0xB176, offset: 0xB176, size: 0x8, addend: 0x0, symName: __ZNSt3__114numeric_limitsIlE3maxB8ue170006Ev, symObjAddr: 0x1D2C, symBinAddr: 0x1000029A4, symSize: 0x14 }
  - { offsetInCU: 0xB19E, offset: 0xB19E, size: 0x8, addend: 0x0, symName: __ZNKSt3__16__lessIvvEclB8ue170006ImmEEbRKT_RKT0_, symObjAddr: 0x1D94, symBinAddr: 0x100002A0C, symSize: 0x34 }
  - { offsetInCU: 0xB1F1, offset: 0xB1F1, size: 0x8, addend: 0x0, symName: __ZNKSt3__19allocatorI6personE8max_sizeB8ue170006Ev, symObjAddr: 0x1DC8, symBinAddr: 0x100002A40, symSize: 0x14 }
  - { offsetInCU: 0xB216, offset: 0xB216, size: 0x8, addend: 0x0, symName: __ZNKSt3__117__compressed_pairIP6personNS_9allocatorIS1_EEE6secondB8ue170006Ev, symObjAddr: 0x1DDC, symBinAddr: 0x100002A54, symSize: 0x24 }
  - { offsetInCU: 0xB23B, offset: 0xB23B, size: 0x8, addend: 0x0, symName: __ZNKSt3__122__compressed_pair_elemINS_9allocatorI6personEELi1ELb1EE5__getB8ue170006Ev, symObjAddr: 0x1E00, symBinAddr: 0x100002A78, symSize: 0x14 }
  - { offsetInCU: 0xB260, offset: 0xB260, size: 0x8, addend: 0x0, symName: __ZNSt3__123__libcpp_numeric_limitsIlLb1EE3maxB8ue170006Ev, symObjAddr: 0x1E14, symBinAddr: 0x100002A8C, symSize: 0x8 }
  - { offsetInCU: 0xB274, offset: 0xB274, size: 0x8, addend: 0x0, symName: __ZNSt12length_errorC1B8ue170006EPKc, symObjAddr: 0x1E80, symBinAddr: 0x100002AF8, symSize: 0x34 }
  - { offsetInCU: 0xB2AB, offset: 0xB2AB, size: 0x8, addend: 0x0, symName: __ZNSt12length_errorC2B8ue170006EPKc, symObjAddr: 0x1EB4, symBinAddr: 0x100002B2C, symSize: 0x4C }
  - { offsetInCU: 0xB2E2, offset: 0xB2E2, size: 0x8, addend: 0x0, symName: __ZNSt3__114__split_bufferI6personRNS_9allocatorIS1_EEEC2EmmS4_, symObjAddr: 0x1F54, symBinAddr: 0x100002BCC, symSize: 0xD4 }
  - { offsetInCU: 0xB355, offset: 0xB355, size: 0x8, addend: 0x0, symName: __ZNSt3__117__compressed_pairIP6personRNS_9allocatorIS1_EEEC1B8ue170006IDnS5_EEOT_OT0_, symObjAddr: 0x2028, symBinAddr: 0x100002CA0, symSize: 0x3C }
  - { offsetInCU: 0xB3AC, offset: 0xB3AC, size: 0x8, addend: 0x0, symName: __ZNSt3__114__split_bufferI6personRNS_9allocatorIS1_EEE7__allocB8ue170006Ev, symObjAddr: 0x20A4, symBinAddr: 0x100002D1C, symSize: 0x28 }
  - { offsetInCU: 0xB3D1, offset: 0xB3D1, size: 0x8, addend: 0x0, symName: __ZNSt3__114__split_bufferI6personRNS_9allocatorIS1_EEE9__end_capB8ue170006Ev, symObjAddr: 0x20CC, symBinAddr: 0x100002D44, symSize: 0x28 }
  - { offsetInCU: 0xB3F6, offset: 0xB3F6, size: 0x8, addend: 0x0, symName: __ZNSt3__117__compressed_pairIP6personRNS_9allocatorIS1_EEEC2B8ue170006IDnS5_EEOT_OT0_, symObjAddr: 0x20F4, symBinAddr: 0x100002D6C, symSize: 0x48 }
  - { offsetInCU: 0xB44D, offset: 0xB44D, size: 0x8, addend: 0x0, symName: __ZNSt3__122__compressed_pair_elemIRNS_9allocatorI6personEELi1ELb0EEC2B8ue170006IS4_vEEOT_, symObjAddr: 0x213C, symBinAddr: 0x100002DB4, symSize: 0x20 }
  - { offsetInCU: 0xB48E, offset: 0xB48E, size: 0x8, addend: 0x0, symName: __ZNSt3__19allocatorI6personE8allocateB8ue170006Em, symObjAddr: 0x215C, symBinAddr: 0x100002DD4, symSize: 0x84 }
  - { offsetInCU: 0xB4C1, offset: 0xB4C1, size: 0x8, addend: 0x0, symName: __ZNSt3__117__compressed_pairIP6personRNS_9allocatorIS1_EEE6secondB8ue170006Ev, symObjAddr: 0x2260, symBinAddr: 0x100002ED8, symSize: 0x28 }
  - { offsetInCU: 0xB4E6, offset: 0xB4E6, size: 0x8, addend: 0x0, symName: __ZNSt3__122__compressed_pair_elemIRNS_9allocatorI6personEELi1ELb0EE5__getB8ue170006Ev, symObjAddr: 0x2288, symBinAddr: 0x100002F00, symSize: 0x18 }
  - { offsetInCU: 0xB50B, offset: 0xB50B, size: 0x8, addend: 0x0, symName: __ZNSt3__117__compressed_pairIP6personRNS_9allocatorIS1_EEE5firstB8ue170006Ev, symObjAddr: 0x22A0, symBinAddr: 0x100002F18, symSize: 0x24 }
  - { offsetInCU: 0xB530, offset: 0xB530, size: 0x8, addend: 0x0, symName: __ZNSt3__116reverse_iteratorIP6personEC1B8ue170006ES2_, symObjAddr: 0x23F8, symBinAddr: 0x100003070, symSize: 0x34 }
  - { offsetInCU: 0xB567, offset: 0xB567, size: 0x8, addend: 0x0, symName: __ZNKSt3__116reverse_iteratorIP6personE4baseB8ue170006Ev, symObjAddr: 0x242C, symBinAddr: 0x1000030A4, symSize: 0x18 }
  - { offsetInCU: 0xB58C, offset: 0xB58C, size: 0x8, addend: 0x0, symName: __ZNKSt3__16vectorI6personNS_9allocatorIS1_EEE14__annotate_newB8ue170006Em, symObjAddr: 0x2480, symBinAddr: 0x1000030F8, symSize: 0xAC }
  - { offsetInCU: 0xB5C0, offset: 0xB5C0, size: 0x8, addend: 0x0, symName: __ZNSt3__129_AllocatorDestroyRangeReverseINS_9allocatorI6personEENS_16reverse_iteratorIPS2_EEEC1B8ue170006ERS3_RS6_S9_, symObjAddr: 0x2578, symBinAddr: 0x1000031F0, symSize: 0x44 }
  - { offsetInCU: 0xB616, offset: 0xB616, size: 0x8, addend: 0x0, symName: __ZNKSt3__116reverse_iteratorIP6personEdeB8ue170006Ev, symObjAddr: 0x2628, symBinAddr: 0x1000032A0, symSize: 0x28 }
  - { offsetInCU: 0xB649, offset: 0xB649, size: 0x8, addend: 0x0, symName: __ZNSt3__116reverse_iteratorIP6personEppB8ue170006Ev, symObjAddr: 0x2650, symBinAddr: 0x1000032C8, symSize: 0x20 }
  - { offsetInCU: 0xB66E, offset: 0xB66E, size: 0x8, addend: 0x0, symName: __ZNSt3__128__exception_guard_exceptionsINS_29_AllocatorDestroyRangeReverseINS_9allocatorI6personEENS_16reverse_iteratorIPS3_EEEEE10__completeB8ue170006Ev, symObjAddr: 0x2670, symBinAddr: 0x1000032E8, symSize: 0x1C }
  - { offsetInCU: 0xB693, offset: 0xB693, size: 0x8, addend: 0x0, symName: __ZNSt3__128__exception_guard_exceptionsINS_29_AllocatorDestroyRangeReverseINS_9allocatorI6personEENS_16reverse_iteratorIPS3_EEEEED1B8ue170006Ev, symObjAddr: 0x268C, symBinAddr: 0x100003304, symSize: 0x2C }
  - { offsetInCU: 0xB6BC, offset: 0xB6BC, size: 0x8, addend: 0x0, symName: __ZNSt3__128__exception_guard_exceptionsINS_29_AllocatorDestroyRangeReverseINS_9allocatorI6personEENS_16reverse_iteratorIPS3_EEEEEC1B8ue170006ES8_, symObjAddr: 0x26B8, symBinAddr: 0x100003330, symSize: 0x34 }
  - { offsetInCU: 0xB6F4, offset: 0xB6F4, size: 0x8, addend: 0x0, symName: __ZNSt3__128__exception_guard_exceptionsINS_29_AllocatorDestroyRangeReverseINS_9allocatorI6personEENS_16reverse_iteratorIPS3_EEEEEC2B8ue170006ES8_, symObjAddr: 0x26EC, symBinAddr: 0x100003364, symSize: 0x30 }
  - { offsetInCU: 0xB72C, offset: 0xB72C, size: 0x8, addend: 0x0, symName: __ZNSt3__129_AllocatorDestroyRangeReverseINS_9allocatorI6personEENS_16reverse_iteratorIPS2_EEEC2B8ue170006ERS3_RS6_S9_, symObjAddr: 0x271C, symBinAddr: 0x100003394, symSize: 0x38 }
  - { offsetInCU: 0xB787, offset: 0xB787, size: 0x8, addend: 0x0, symName: __ZNSt3__119__to_address_helperINS_16reverse_iteratorIP6personEEvE6__callB8ue170006ERKS4_, symObjAddr: 0x2754, symBinAddr: 0x1000033CC, symSize: 0x4C }
  - { offsetInCU: 0xB7AA, offset: 0xB7AA, size: 0x8, addend: 0x0, symName: __ZNKSt3__116reverse_iteratorIP6personEptB8ue170006Ev, symObjAddr: 0x27A0, symBinAddr: 0x100003418, symSize: 0x24 }
  - { offsetInCU: 0xB7CF, offset: 0xB7CF, size: 0x8, addend: 0x0, symName: __ZNSt3__128__exception_guard_exceptionsINS_29_AllocatorDestroyRangeReverseINS_9allocatorI6personEENS_16reverse_iteratorIPS3_EEEEED2B8ue170006Ev, symObjAddr: 0x27C4, symBinAddr: 0x10000343C, symSize: 0x48 }
  - { offsetInCU: 0xB7F8, offset: 0xB7F8, size: 0x8, addend: 0x0, symName: __ZNKSt3__129_AllocatorDestroyRangeReverseINS_9allocatorI6personEENS_16reverse_iteratorIPS2_EEEclB8ue170006Ev, symObjAddr: 0x280C, symBinAddr: 0x100003484, symSize: 0xB4 }
  - { offsetInCU: 0xB81E, offset: 0xB81E, size: 0x8, addend: 0x0, symName: __ZNSt3__116reverse_iteratorINS0_IP6personEEEC1B8ue170006ES3_, symObjAddr: 0x2930, symBinAddr: 0x1000035A8, symSize: 0x3C }
  - { offsetInCU: 0xB855, offset: 0xB855, size: 0x8, addend: 0x0, symName: __ZNSt3__116reverse_iteratorINS0_IP6personEEEppB8ue170006Ev, symObjAddr: 0x29F0, symBinAddr: 0x100003668, symSize: 0x30 }
  - { offsetInCU: 0xB87A, offset: 0xB87A, size: 0x8, addend: 0x0, symName: __ZNKSt3__116reverse_iteratorINS0_IP6personEEE4baseB8ue170006Ev, symObjAddr: 0x2A20, symBinAddr: 0x100003698, symSize: 0x24 }
  - { offsetInCU: 0xB8A4, offset: 0xB8A4, size: 0x8, addend: 0x0, symName: __ZNSt3__119__to_address_helperINS_16reverse_iteratorINS1_IP6personEEEEvE6__callB8ue170006ERKS5_, symObjAddr: 0x2A44, symBinAddr: 0x1000036BC, symSize: 0x4C }
  - { offsetInCU: 0xB8C7, offset: 0xB8C7, size: 0x8, addend: 0x0, symName: __ZNKSt3__116reverse_iteratorINS0_IP6personEEEptB8ue170006Ev, symObjAddr: 0x2A90, symBinAddr: 0x100003708, symSize: 0x24 }
  - { offsetInCU: 0xB8EC, offset: 0xB8EC, size: 0x8, addend: 0x0, symName: __ZNKSt3__116reverse_iteratorINS0_IP6personEEEdeB8ue170006Ev, symObjAddr: 0x2AB4, symBinAddr: 0x10000372C, symSize: 0x34 }
  - { offsetInCU: 0xB91F, offset: 0xB91F, size: 0x8, addend: 0x0, symName: __ZNSt3__116reverse_iteratorIP6personEmmB8ue170006Ev, symObjAddr: 0x2AE8, symBinAddr: 0x100003760, symSize: 0x20 }
  - { offsetInCU: 0xB944, offset: 0xB944, size: 0x8, addend: 0x0, symName: __ZNSt3__116reverse_iteratorINS0_IP6personEEEC2B8ue170006ES3_, symObjAddr: 0x2B08, symBinAddr: 0x100003780, symSize: 0x2C }
  - { offsetInCU: 0xB97B, offset: 0xB97B, size: 0x8, addend: 0x0, symName: __ZNSt3__116reverse_iteratorIP6personEC2B8ue170006ES2_, symObjAddr: 0x2B34, symBinAddr: 0x1000037AC, symSize: 0x28 }
  - { offsetInCU: 0xB9B2, offset: 0xB9B2, size: 0x8, addend: 0x0, symName: __ZNSt3__114__split_bufferI6personRNS_9allocatorIS1_EEED2Ev, symObjAddr: 0x2B5C, symBinAddr: 0x1000037D4, symSize: 0x80 }
  - { offsetInCU: 0xB9DD, offset: 0xB9DD, size: 0x8, addend: 0x0, symName: __ZNSt3__114__split_bufferI6personRNS_9allocatorIS1_EEE5clearB8ue170006Ev, symObjAddr: 0x2BDC, symBinAddr: 0x100003854, symSize: 0x28 }
  - { offsetInCU: 0xBA02, offset: 0xBA02, size: 0x8, addend: 0x0, symName: __ZNKSt3__114__split_bufferI6personRNS_9allocatorIS1_EEE8capacityB8ue170006Ev, symObjAddr: 0x2C04, symBinAddr: 0x10000387C, symSize: 0x40 }
  - { offsetInCU: 0xBA27, offset: 0xBA27, size: 0x8, addend: 0x0, symName: __ZNSt3__114__split_bufferI6personRNS_9allocatorIS1_EEE17__destruct_at_endB8ue170006EPS1_, symObjAddr: 0x2C44, symBinAddr: 0x1000038BC, symSize: 0x2C }
  - { offsetInCU: 0xBA59, offset: 0xBA59, size: 0x8, addend: 0x0, symName: __ZNSt3__114__split_bufferI6personRNS_9allocatorIS1_EEE17__destruct_at_endB8ue170006EPS1_NS_17integral_constantIbLb0EEE, symObjAddr: 0x2C70, symBinAddr: 0x1000038E8, symSize: 0x94 }
  - { offsetInCU: 0xBA99, offset: 0xBA99, size: 0x8, addend: 0x0, symName: __ZNKSt3__114__split_bufferI6personRNS_9allocatorIS1_EEE9__end_capB8ue170006Ev, symObjAddr: 0x2D04, symBinAddr: 0x10000397C, symSize: 0x28 }
  - { offsetInCU: 0xBABE, offset: 0xBABE, size: 0x8, addend: 0x0, symName: __ZNKSt3__117__compressed_pairIP6personRNS_9allocatorIS1_EEE5firstB8ue170006Ev, symObjAddr: 0x2D2C, symBinAddr: 0x1000039A4, symSize: 0x24 }
...
